target datalayout = "e-m:e-p270:32:32-p271:32:32-p272:64:64-i64:64-i128:128-f80:128-n8:16:32:64-S128"
target triple = "x86_64-pc-linux-gnu"

%struct.Abc_Frame_t_ = type { ptr, ptr, ptr, ptr, ptr, ptr, ptr, ptr, ptr, ptr, i32, i32, i32, i32, i32, ptr, float, float, i32, i32, ptr, ptr, ptr, double, double, ptr, ptr, ptr, ptr, ptr, ptr, ptr, ptr, ptr, ptr, ptr, ptr, float, ptr, i32, ptr, ptr, ptr, ptr, ptr, i32, i32, i32, i32, i32, i32, ptr, ptr, ptr, ptr, ptr, ptr, i32, i32, ptr, ptr, ptr, ptr, ptr, ptr, ptr, ptr, ptr, ptr, ptr, ptr, ptr, ptr, ptr, ptr, ptr, ptr, ptr, ptr, ptr, ptr, ptr, ptr, ptr, ptr, ptr, ptr, ptr, ptr }

@globalUtilOptind = external global i32, align 4
@.str.53 = private unnamed_addr constant [2 x i8] c"h\00", align 1
@.str.54 = private unnamed_addr constant [40 x i8] c"There is no Liberty library available.\0A\00", align 1
@.str.55 = private unnamed_addr constant [3 x i8] c"wb\00", align 1
@.str.56 = private unnamed_addr constant [32 x i8] c"Cannot open output file \22%s\22. \0A\00", align 1
@.str.57 = private unnamed_addr constant [30 x i8] c"usage: write_lib [-h] <file>\0A\00", align 1
@.str.58 = private unnamed_addr constant [51 x i8] c"\09         write current Liberty library into file\0A\00", align 1
@.str.59 = private unnamed_addr constant [34 x i8] c"\09-h     : print the help massage\0A\00", align 1
@.str.60 = private unnamed_addr constant [41 x i8] c"\09<file> : the name of the file to write\0A\00", align 1

; Function Attrs: nounwind uwtable
define internal i32 @Scl_CommandWriteLib(ptr noundef %0, i32 noundef %1, ptr noundef %2) #0 {
  %4 = alloca i32, align 4
  %5 = alloca ptr, align 8
  %6 = alloca i32, align 4
  %7 = alloca ptr, align 8
  %8 = alloca ptr, align 8
  %9 = alloca ptr, align 8
  %10 = alloca i32, align 4
  %11 = alloca i32, align 4
  store ptr %0, ptr %5, align 8, !tbaa !3
  store i32 %1, ptr %6, align 4, !tbaa !29
  store ptr %2, ptr %7, align 8, !tbaa !50
  call void @llvm.lifetime.start.p0(i64 8, ptr %8) #12
  call void @llvm.lifetime.start.p0(i64 8, ptr %9) #12
  call void @llvm.lifetime.start.p0(i64 4, ptr %10) #12
  call void (...) @Extra_UtilGetoptReset()
  br label %12

12:                                               ; preds = %3
  %13 = load i32, ptr %6, align 4, !tbaa !29
  %14 = load ptr, ptr %7, align 8, !tbaa !50
  %15 = call i32 @Extra_UtilGetopt(i32 noundef %13, ptr noundef %14, ptr noundef @.str.53)
  store i32 %15, ptr %10, align 4, !tbaa !29
  %16 = icmp ne i32 %15, -1
  br i1 %16, label %17, label %21

17:                                               ; preds = %12
  %18 = load i32, ptr %10, align 4, !tbaa !29
  switch i32 %18, label %20 [
    i32 104, label %19
  ]

19:                                               ; preds = %17
  br label %59

20:                                               ; preds = %17
  br label %59

21:                                               ; preds = %12
  %22 = load i32, ptr %6, align 4, !tbaa !29
  %23 = load i32, ptr @globalUtilOptind, align 4, !tbaa !29
  %24 = add nsw i32 %23, 1
  %25 = icmp ne i32 %22, %24
  br i1 %25, label %26, label %27

26:                                               ; preds = %21
  br label %59

27:                                               ; preds = %21
  %28 = load ptr, ptr %5, align 8, !tbaa !3
  %29 = getelementptr inbounds nuw %struct.Abc_Frame_t_, ptr %28, i32 0, i32 34
  %30 = load ptr, ptr %29, align 8, !tbaa !58
  %31 = icmp eq ptr %30, null
  br i1 %31, label %32, label %37

32:                                               ; preds = %27
  %33 = load ptr, ptr %5, align 8, !tbaa !3
  %34 = getelementptr inbounds nuw %struct.Abc_Frame_t_, ptr %33, i32 0, i32 21
  %35 = load ptr, ptr %34, align 8, !tbaa !59
  %36 = call i32 (ptr, ptr, ...) @fprintf(ptr noundef %35, ptr noundef @.str.54) #12
  store i32 1, ptr %4, align 4
  store i32 1, ptr %11, align 4
  br label %76

37:                                               ; preds = %27
  %38 = load ptr, ptr %7, align 8, !tbaa !50
  %39 = load i32, ptr @globalUtilOptind, align 4, !tbaa !29
  %40 = sext i32 %39 to i64
  %41 = getelementptr inbounds ptr, ptr %38, i64 %40
  %42 = load ptr, ptr %41, align 8, !tbaa !56
  store ptr %42, ptr %9, align 8, !tbaa !56
  %43 = load ptr, ptr %9, align 8, !tbaa !56
  %44 = call noalias ptr @fopen(ptr noundef %43, ptr noundef @.str.55)
  store ptr %44, ptr %8, align 8, !tbaa !63
  %45 = icmp eq ptr %44, null
  br i1 %45, label %46, label %52

46:                                               ; preds = %37
  %47 = load ptr, ptr %5, align 8, !tbaa !3
  %48 = getelementptr inbounds nuw %struct.Abc_Frame_t_, ptr %47, i32 0, i32 21
  %49 = load ptr, ptr %48, align 8, !tbaa !59
  %50 = load ptr, ptr %9, align 8, !tbaa !56
  %51 = call i32 (ptr, ptr, ...) @fprintf(ptr noundef %49, ptr noundef @.str.56, ptr noundef %50) #12
  store i32 1, ptr %4, align 4
  store i32 1, ptr %11, align 4
  br label %76

52:                                               ; preds = %37
  %53 = load ptr, ptr %8, align 8, !tbaa !63
  %54 = call i32 @fclose(ptr noundef %53)
  %55 = load ptr, ptr %9, align 8, !tbaa !56
  %56 = load ptr, ptr %5, align 8, !tbaa !3
  %57 = getelementptr inbounds nuw %struct.Abc_Frame_t_, ptr %56, i32 0, i32 34
  %58 = load ptr, ptr %57, align 8, !tbaa !58
  call void @Abc_SclWriteLiberty(ptr noundef %55, ptr noundef %58)
  store i32 0, ptr %4, align 4
  store i32 1, ptr %11, align 4
  br label %76

59:                                               ; preds = %26, %20, %19
  %60 = load ptr, ptr %5, align 8, !tbaa !3
  %61 = getelementptr inbounds nuw %struct.Abc_Frame_t_, ptr %60, i32 0, i32 21
  %62 = load ptr, ptr %61, align 8, !tbaa !59
  %63 = call i32 (ptr, ptr, ...) @fprintf(ptr noundef %62, ptr noundef @.str.57) #12
  %64 = load ptr, ptr %5, align 8, !tbaa !3
  %65 = getelementptr inbounds nuw %struct.Abc_Frame_t_, ptr %64, i32 0, i32 21
  %66 = load ptr, ptr %65, align 8, !tbaa !59
  %67 = call i32 (ptr, ptr, ...) @fprintf(ptr noundef %66, ptr noundef @.str.58) #12
  %68 = load ptr, ptr %5, align 8, !tbaa !3
  %69 = getelementptr inbounds nuw %struct.Abc_Frame_t_, ptr %68, i32 0, i32 21
  %70 = load ptr, ptr %69, align 8, !tbaa !59
  %71 = call i32 (ptr, ptr, ...) @fprintf(ptr noundef %70, ptr noundef @.str.59) #12
  %72 = load ptr, ptr %5, align 8, !tbaa !3
  %73 = getelementptr inbounds nuw %struct.Abc_Frame_t_, ptr %72, i32 0, i32 21
  %74 = load ptr, ptr %73, align 8, !tbaa !59
  %75 = call i32 (ptr, ptr, ...) @fprintf(ptr noundef %74, ptr noundef @.str.60) #12
  store i32 1, ptr %4, align 4
  store i32 1, ptr %11, align 4
  br label %76

76:                                               ; preds = %59, %52, %46, %32
  call void @llvm.lifetime.end.p0(i64 4, ptr %10) #12
  call void @llvm.lifetime.end.p0(i64 8, ptr %9) #12
  call void @llvm.lifetime.end.p0(i64 8, ptr %8) #12
  %77 = load i32, ptr %4, align 4
  ret i32 %77
}